(dp0
I1
(i__main__
Cart
p1
(dp2
S'_Total'
p3
I20
sS'ProductList'
p4
(lp5
(i__main__
Products
p6
(dp7
S'_Price'
p8
I20
sS'_Group'
p9
S'Stationary'
p10
sS'_Name'
p11
S'Pen APsara'
p12
sS'_Subgroup'
p13
S'Copy kitab'
p14
sS'_Products__id'
p15
I1
sbasS'_ProductList'
p16
g5
sS'_Cart__id'
p17
I1
sS'_NumberOfProducts'
p18
I1
sS'customer_id'
p19
I1
sbsI3
(i__main__
Cart
p20
(dp21
g3
I178
sg4
(lp22
(i__main__
Products
p23
(dp24
g8
I89
sg9
S'nahana'
p25
sg11
S'sabun'
p26
sg13
S'bath'
p27
sg15
I2
sba(i__main__
Products
p28
(dp29
g8
I89
sg9
S'nahana'
p30
sg11
S'sabun'
p31
sg13
S'bath'
p32
sg15
I2
sbasg16
g22
sg17
I1
sg18
I2
sg19
I3
sbsI4
(i__main__
Cart
p33
(dp34
g3
I0
sg4
(lp35
sg16
g35
sg17
I1
sg18
I0
sg19
I4
sbs.