(dp0
I1
(i__main__
Customer
p1
(dp2
S'_Address'
p3
S'abc'
p4
sS'_Customer__id'
p5
I1
sS'_PhnNo'
p6
S'7897582652'
p7
sS'_Name'
p8
S'badaam'
p9
sbsI2
(i__main__
Customer
p10
(dp11
g3
S'bfdhtcn'
p12
sg5
I2
sg6
S'35656'
p13
sg8
S'kishan'
p14
sbsI3
(i__main__
Customer
p15
(dp16
g3
S'jgfdfc'
p17
sg5
I3
sg6
S'21215'
p18
sg8
S'hgf.'
p19
sbsI4
(i__main__
Customer
p20
(dp21
g3
S'bfjbsjfjfd'
p22
sS'_phone'
p23
S'5464465656'
p24
sg5
I4
sg8
S'rohan'
p25
sbs.