(dp0
I1
(i__main__
Products
p1
(dp2
S'_Price'
p3
I20
sS'_Group'
p4
S'Stationary'
p5
sS'_Name'
p6
S'Pen APsara'
p7
sS'_Subgroup'
p8
S'Copy kitab'
p9
sS'_Products__id'
p10
I1
sbsI2
(i__main__
Products
p11
(dp12
g3
I89
sg4
S'nahana'
p13
sg6
S'sabun'
p14
sg8
S'bath'
p15
sg10
I2
sbs.